#include <math.h>
#include <stdio.h>
#include <stdlib.h>
#include <string.h>

int compare(char a,char b[100],char c[100])
{
	int z,i,j=0,k=0;
	for(i=0;b[i]!='\0';i++)
	{
		if(b[i]==a)
			j++;
		if(c[i]==a)
			k++;
	}
	if(j!=k)
		z=0;
	else
		z=1;
	return(z);
}
void main()
{
	char a,s1[100],s2[100];
	int i,s,j,k;
	scanf("%s %s",s1,s2);
	j=strlen(s1);
	k=strlen(s2);
	if(j!=k)
		printf("NO");
	else 
	{
			for(a='!';a<='~';a++)
			{
				s=compare(a,s1,s2);
				if(s==0)
				{printf("NO");break;}
			}
			if(s==1)
				printf("YES");
	}
}