; ModuleID = '36/198.c'
source_filename = "36/198.c"
target datalayout = "e-m:e-p270:32:32-p271:32:32-p272:64:64-i64:64-f80:128-n8:16:32:64-S128"
target triple = "x86_64-pc-linux-gnu"

@.str = private unnamed_addr constant [6 x i8] c"%s %s\00", align 1
@.str.1 = private unnamed_addr constant [3 x i8] c"NO\00", align 1
@.str.2 = private unnamed_addr constant [4 x i8] c"YES\00", align 1

; Function Attrs: noinline nounwind uwtable
define dso_local i32 @compare(i8 signext %0, i8* %1, i8* %2) #0 {
  %4 = alloca i8, align 1
  %5 = alloca i8*, align 8
  %6 = alloca i8*, align 8
  %7 = alloca i32, align 4
  %8 = alloca i32, align 4
  %9 = alloca i32, align 4
  %10 = alloca i32, align 4
  store i8 %0, i8* %4, align 1
  store i8* %1, i8** %5, align 8
  store i8* %2, i8** %6, align 8
  store i32 0, i32* %9, align 4
  store i32 0, i32* %10, align 4
  store i32 0, i32* %8, align 4
  br label %11

11:                                               ; preds = %46, %3
  %12 = load i8*, i8** %5, align 8
  %13 = load i32, i32* %8, align 4
  %14 = sext i32 %13 to i64
  %15 = getelementptr inbounds i8, i8* %12, i64 %14
  %16 = load i8, i8* %15, align 1
  %17 = sext i8 %16 to i32
  %18 = icmp ne i32 %17, 0
  br i1 %18, label %19, label %49

19:                                               ; preds = %11
  %20 = load i8*, i8** %5, align 8
  %21 = load i32, i32* %8, align 4
  %22 = sext i32 %21 to i64
  %23 = getelementptr inbounds i8, i8* %20, i64 %22
  %24 = load i8, i8* %23, align 1
  %25 = sext i8 %24 to i32
  %26 = load i8, i8* %4, align 1
  %27 = sext i8 %26 to i32
  %28 = icmp eq i32 %25, %27
  br i1 %28, label %29, label %32

29:                                               ; preds = %19
  %30 = load i32, i32* %9, align 4
  %31 = add nsw i32 %30, 1
  store i32 %31, i32* %9, align 4
  br label %32

32:                                               ; preds = %29, %19
  %33 = load i8*, i8** %6, align 8
  %34 = load i32, i32* %8, align 4
  %35 = sext i32 %34 to i64
  %36 = getelementptr inbounds i8, i8* %33, i64 %35
  %37 = load i8, i8* %36, align 1
  %38 = sext i8 %37 to i32
  %39 = load i8, i8* %4, align 1
  %40 = sext i8 %39 to i32
  %41 = icmp eq i32 %38, %40
  br i1 %41, label %42, label %45

42:                                               ; preds = %32
  %43 = load i32, i32* %10, align 4
  %44 = add nsw i32 %43, 1
  store i32 %44, i32* %10, align 4
  br label %45

45:                                               ; preds = %42, %32
  br label %46

46:                                               ; preds = %45
  %47 = load i32, i32* %8, align 4
  %48 = add nsw i32 %47, 1
  store i32 %48, i32* %8, align 4
  br label %11

49:                                               ; preds = %11
  %50 = load i32, i32* %9, align 4
  %51 = load i32, i32* %10, align 4
  %52 = icmp ne i32 %50, %51
  br i1 %52, label %53, label %54

53:                                               ; preds = %49
  store i32 0, i32* %7, align 4
  br label %55

54:                                               ; preds = %49
  store i32 1, i32* %7, align 4
  br label %55

55:                                               ; preds = %54, %53
  %56 = load i32, i32* %7, align 4
  ret i32 %56
}

; Function Attrs: noinline nounwind uwtable
define dso_local void @main() #0 {
  %1 = alloca i8, align 1
  %2 = alloca [100 x i8], align 16
  %3 = alloca [100 x i8], align 16
  %4 = alloca i32, align 4
  %5 = alloca i32, align 4
  %6 = alloca i32, align 4
  %7 = alloca i32, align 4
  %8 = getelementptr inbounds [100 x i8], [100 x i8]* %2, i64 0, i64 0
  %9 = getelementptr inbounds [100 x i8], [100 x i8]* %3, i64 0, i64 0
  %10 = call i32 (i8*, ...) @__isoc99_scanf(i8* getelementptr inbounds ([6 x i8], [6 x i8]* @.str, i64 0, i64 0), i8* %8, i8* %9)
  %11 = getelementptr inbounds [100 x i8], [100 x i8]* %2, i64 0, i64 0
  %12 = call i64 @strlen(i8* %11) #3
  %13 = trunc i64 %12 to i32
  store i32 %13, i32* %6, align 4
  %14 = getelementptr inbounds [100 x i8], [100 x i8]* %3, i64 0, i64 0
  %15 = call i64 @strlen(i8* %14) #3
  %16 = trunc i64 %15 to i32
  store i32 %16, i32* %7, align 4
  %17 = load i32, i32* %6, align 4
  %18 = load i32, i32* %7, align 4
  %19 = icmp ne i32 %17, %18
  br i1 %19, label %20, label %22

20:                                               ; preds = %0
  %21 = call i32 (i8*, ...) @printf(i8* getelementptr inbounds ([3 x i8], [3 x i8]* @.str.1, i64 0, i64 0))
  br label %46

22:                                               ; preds = %0
  store i8 33, i8* %1, align 1
  br label %23

23:                                               ; preds = %37, %22
  %24 = load i8, i8* %1, align 1
  %25 = sext i8 %24 to i32
  %26 = icmp sle i32 %25, 126
  br i1 %26, label %27, label %40

27:                                               ; preds = %23
  %28 = load i8, i8* %1, align 1
  %29 = getelementptr inbounds [100 x i8], [100 x i8]* %2, i64 0, i64 0
  %30 = getelementptr inbounds [100 x i8], [100 x i8]* %3, i64 0, i64 0
  %31 = call i32 @compare(i8 signext %28, i8* %29, i8* %30)
  store i32 %31, i32* %5, align 4
  %32 = load i32, i32* %5, align 4
  %33 = icmp eq i32 %32, 0
  br i1 %33, label %34, label %36

34:                                               ; preds = %27
  %35 = call i32 (i8*, ...) @printf(i8* getelementptr inbounds ([3 x i8], [3 x i8]* @.str.1, i64 0, i64 0))
  br label %40

36:                                               ; preds = %27
  br label %37

37:                                               ; preds = %36
  %38 = load i8, i8* %1, align 1
  %39 = add i8 %38, 1
  store i8 %39, i8* %1, align 1
  br label %23

40:                                               ; preds = %34, %23
  %41 = load i32, i32* %5, align 4
  %42 = icmp eq i32 %41, 1
  br i1 %42, label %43, label %45

43:                                               ; preds = %40
  %44 = call i32 (i8*, ...) @printf(i8* getelementptr inbounds ([4 x i8], [4 x i8]* @.str.2, i64 0, i64 0))
  br label %45

45:                                               ; preds = %43, %40
  br label %46

46:                                               ; preds = %45, %20
  ret void
}

declare dso_local i32 @__isoc99_scanf(i8*, ...) #1

; Function Attrs: nounwind readonly
declare dso_local i64 @strlen(i8*) #2

declare dso_local i32 @printf(i8*, ...) #1


!llvm.module.flags = !{!0}
!llvm.ident = !{!1}

!0 = !{i32 1, !"wchar_size", i32 4}
!1 = !{!"clang version 10.0.0-4ubuntu1 "}
