; ModuleID = 'source-C-CXX/35/198.c'
source_filename = "source-C-CXX/35/198.c"
target datalayout = "e-m:e-p270:32:32-p271:32:32-p272:64:64-i64:64-f80:128-n8:16:32:64-S128"
target triple = "x86_64-pc-linux-gnu"

@.str = private unnamed_addr constant [6 x i8] c"%s %s\00", align 1
@.str.1 = private unnamed_addr constant [3 x i8] c"NO\00", align 1
@.str.2 = private unnamed_addr constant [4 x i8] c"YES\00", align 1

; Function Attrs: nofree norecurse nosync nounwind readonly sspstrong uwtable
define dso_local i32 @compare(i8 signext %0, i8* nocapture readonly %1, i8* nocapture readonly %2) local_unnamed_addr #0 {
  %4 = load i8, i8* %1, align 1, !tbaa !5
  %5 = icmp eq i8 %4, 0
  br i1 %5, label %23, label %6

6:                                                ; preds = %3, %6
  %7 = phi i64 [ %19, %6 ], [ 0, %3 ]
  %8 = phi i8 [ %21, %6 ], [ %4, %3 ]
  %9 = phi i32 [ %18, %6 ], [ 0, %3 ]
  %10 = phi i32 [ %13, %6 ], [ 0, %3 ]
  %11 = icmp eq i8 %8, %0
  %12 = zext i1 %11 to i32
  %13 = add nuw nsw i32 %10, %12
  %14 = getelementptr inbounds i8, i8* %2, i64 %7
  %15 = load i8, i8* %14, align 1, !tbaa !5
  %16 = icmp eq i8 %15, %0
  %17 = zext i1 %16 to i32
  %18 = add nuw nsw i32 %9, %17
  %19 = add nuw nsw i64 %7, 1
  %20 = getelementptr inbounds i8, i8* %1, i64 %19
  %21 = load i8, i8* %20, align 1, !tbaa !5
  %22 = icmp eq i8 %21, 0
  br i1 %22, label %23, label %6, !llvm.loop !8

23:                                               ; preds = %6, %3
  %24 = phi i32 [ 0, %3 ], [ %13, %6 ]
  %25 = phi i32 [ 0, %3 ], [ %18, %6 ]
  %26 = icmp eq i32 %24, %25
  %27 = zext i1 %26 to i32
  ret i32 %27
}

; Function Attrs: argmemonly mustprogress nofree nosync nounwind willreturn
declare void @llvm.lifetime.start.p0i8(i64 immarg, i8* nocapture) #1

; Function Attrs: argmemonly mustprogress nofree nosync nounwind willreturn
declare void @llvm.lifetime.end.p0i8(i64 immarg, i8* nocapture) #1

; Function Attrs: nofree nounwind sspstrong uwtable
define dso_local void @main() local_unnamed_addr #2 {
  %1 = alloca [100 x i8], align 16
  %2 = alloca [100 x i8], align 16
  %3 = getelementptr inbounds [100 x i8], [100 x i8]* %1, i64 0, i64 0
  call void @llvm.lifetime.start.p0i8(i64 100, i8* nonnull %3) #5
  %4 = getelementptr inbounds [100 x i8], [100 x i8]* %2, i64 0, i64 0
  call void @llvm.lifetime.start.p0i8(i64 100, i8* nonnull %4) #5
  %5 = call i32 (i8*, ...) @__isoc99_scanf(i8* getelementptr inbounds ([6 x i8], [6 x i8]* @.str, i64 0, i64 0), i8* nonnull %3, i8* nonnull %4)
  %6 = call i64 @strlen(i8* noundef nonnull %3) #6
  %7 = trunc i64 %6 to i32
  %8 = call i64 @strlen(i8* noundef nonnull %4) #6
  %9 = trunc i64 %8 to i32
  %10 = icmp eq i32 %7, %9
  br i1 %10, label %11, label %38

11:                                               ; preds = %0
  %12 = load i8, i8* %3, align 16, !tbaa !5
  %13 = icmp eq i8 %12, 0
  br i1 %13, label %38, label %14

14:                                               ; preds = %11, %35
  %15 = phi i8 [ %36, %35 ], [ 33, %11 ]
  br label %16

16:                                               ; preds = %14, %16
  %17 = phi i64 [ %29, %16 ], [ 0, %14 ]
  %18 = phi i8 [ %31, %16 ], [ %12, %14 ]
  %19 = phi i32 [ %28, %16 ], [ 0, %14 ]
  %20 = phi i32 [ %23, %16 ], [ 0, %14 ]
  %21 = icmp eq i8 %18, %15
  %22 = zext i1 %21 to i32
  %23 = add nuw nsw i32 %20, %22
  %24 = getelementptr inbounds [100 x i8], [100 x i8]* %2, i64 0, i64 %17
  %25 = load i8, i8* %24, align 1, !tbaa !5
  %26 = icmp eq i8 %25, %15
  %27 = zext i1 %26 to i32
  %28 = add nuw nsw i32 %19, %27
  %29 = add nuw nsw i64 %17, 1
  %30 = getelementptr inbounds [100 x i8], [100 x i8]* %1, i64 0, i64 %29
  %31 = load i8, i8* %30, align 1, !tbaa !5
  %32 = icmp eq i8 %31, 0
  br i1 %32, label %33, label %16, !llvm.loop !8

33:                                               ; preds = %16
  %34 = icmp eq i32 %23, %28
  br i1 %34, label %35, label %38

35:                                               ; preds = %33
  %36 = add nuw nsw i8 %15, 1
  %37 = icmp eq i8 %36, 127
  br i1 %37, label %38, label %14, !llvm.loop !10

38:                                               ; preds = %35, %33, %11, %0
  %39 = phi i8* [ getelementptr inbounds ([3 x i8], [3 x i8]* @.str.1, i64 0, i64 0), %0 ], [ getelementptr inbounds ([4 x i8], [4 x i8]* @.str.2, i64 0, i64 0), %11 ], [ getelementptr inbounds ([3 x i8], [3 x i8]* @.str.1, i64 0, i64 0), %33 ], [ getelementptr inbounds ([4 x i8], [4 x i8]* @.str.2, i64 0, i64 0), %35 ]
  %40 = call i32 (i8*, ...) @printf(i8* nonnull dereferenceable(1) %39)
  call void @llvm.lifetime.end.p0i8(i64 100, i8* nonnull %4) #5
  call void @llvm.lifetime.end.p0i8(i64 100, i8* nonnull %3) #5
  ret void
}

; Function Attrs: nofree nounwind
declare noundef i32 @__isoc99_scanf(i8* nocapture noundef readonly, ...) local_unnamed_addr #3

; Function Attrs: argmemonly mustprogress nofree nounwind readonly willreturn
declare i64 @strlen(i8* nocapture) local_unnamed_addr #4

; Function Attrs: nofree nounwind
declare noundef i32 @printf(i8* nocapture noundef readonly, ...) local_unnamed_addr #3


!llvm.module.flags = !{!0, !1, !2, !3}
!llvm.ident = !{!4}

!0 = !{i32 1, !"wchar_size", i32 4}
!1 = !{i32 7, !"PIC Level", i32 2}
!2 = !{i32 7, !"PIE Level", i32 2}
!3 = !{i32 7, !"uwtable", i32 1}
!4 = !{!"clang version 13.0.0"}
!5 = !{!6, !6, i64 0}
!6 = !{!"omnipotent char", !7, i64 0}
!7 = !{!"Simple C/C++ TBAA"}
!8 = distinct !{!8, !9}
!9 = !{!"llvm.loop.mustprogress"}
!10 = distinct !{!10, !9}
